target datalayout = "e-m:e-p270:32:32-p271:32:32-p272:64:64-i64:64-i128:128-f80:128-n8:16:32:64-S128"
target triple = "x86_64-pc-linux-gnu"

%struct.fdt_header = type { i32, i32, i32, i32, i32, i32, i32, i32, i32, i32 }

; Function Attrs: inlinehint nounwind uwtable
define internal i32 @cpu_to_fdt32(i32 noundef %0) #2 {
  %2 = alloca i32, align 4
  store i32 %0, ptr %2, align 4
  %3 = getelementptr inbounds i8, ptr %2, i64 0
  %4 = load i8, ptr %3, align 4
  %5 = zext i8 %4 to i64
  %6 = shl i64 %5, 24
  %7 = getelementptr inbounds i8, ptr %2, i64 1
  %8 = load i8, ptr %7, align 1
  %9 = zext i8 %8 to i64
  %10 = shl i64 %9, 16
  %11 = or i64 %6, %10
  %12 = getelementptr inbounds i8, ptr %2, i64 2
  %13 = load i8, ptr %12, align 2
  %14 = zext i8 %13 to i64
  %15 = shl i64 %14, 8
  %16 = or i64 %11, %15
  %17 = getelementptr inbounds i8, ptr %2, i64 3
  %18 = load i8, ptr %17, align 1
  %19 = zext i8 %18 to i64
  %20 = or i64 %16, %19
  %21 = trunc i64 %20 to i32
  ret i32 %21
}

; Function Attrs: inlinehint nounwind uwtable
define internal void @fdt_set_version(ptr noundef %0, i32 noundef %1) #2 {
  %3 = alloca ptr, align 8
  %4 = alloca i32, align 4
  %5 = alloca ptr, align 8
  store ptr %0, ptr %3, align 8
  store i32 %1, ptr %4, align 4
  call void @llvm.lifetime.start.p0(i64 8, ptr %5) #7
  %6 = load ptr, ptr %3, align 8
  store ptr %6, ptr %5, align 8
  %7 = load i32, ptr %4, align 4
  %8 = call i32 @cpu_to_fdt32(i32 noundef %7)
  %9 = load ptr, ptr %5, align 8
  %10 = getelementptr inbounds nuw %struct.fdt_header, ptr %9, i32 0, i32 5
  store i32 %8, ptr %10, align 4
  call void @llvm.lifetime.end.p0(i64 8, ptr %5) #7
  ret void
}

; Function Attrs: inlinehint nounwind uwtable
define internal i32 @fdt32_ld(ptr noundef %0) #2 {
  %2 = alloca ptr, align 8
  %3 = alloca ptr, align 8
  store ptr %0, ptr %2, align 8
  call void @llvm.lifetime.start.p0(i64 8, ptr %3) #7
  %4 = load ptr, ptr %2, align 8
  store ptr %4, ptr %3, align 8
  %5 = load ptr, ptr %3, align 8
  %6 = getelementptr inbounds i8, ptr %5, i64 0
  %7 = load i8, ptr %6, align 1
  %8 = zext i8 %7 to i32
  %9 = shl i32 %8, 24
  %10 = load ptr, ptr %3, align 8
  %11 = getelementptr inbounds i8, ptr %10, i64 1
  %12 = load i8, ptr %11, align 1
  %13 = zext i8 %12 to i32
  %14 = shl i32 %13, 16
  %15 = or i32 %9, %14
  %16 = load ptr, ptr %3, align 8
  %17 = getelementptr inbounds i8, ptr %16, i64 2
  %18 = load i8, ptr %17, align 1
  %19 = zext i8 %18 to i32
  %20 = shl i32 %19, 8
  %21 = or i32 %15, %20
  %22 = load ptr, ptr %3, align 8
  %23 = getelementptr inbounds i8, ptr %22, i64 3
  %24 = load i8, ptr %23, align 1
  %25 = zext i8 %24 to i32
  %26 = or i32 %21, %25
  call void @llvm.lifetime.end.p0(i64 8, ptr %3) #7
  ret i32 %26
}

; Function Attrs: inlinehint nounwind uwtable
define internal zeroext i1 @can_assume_(i32 noundef %0) #2 {
  %2 = alloca i32, align 4
  store i32 %0, ptr %2, align 4
  %3 = load i32, ptr %2, align 4
  %4 = and i32 0, %3
  %5 = icmp ne i32 %4, 0
  ret i1 %5
}

; Function Attrs: nounwind uwtable
define internal i32 @fdt_rw_probe_(ptr noundef %0) #0 {
  %2 = alloca i32, align 4
  %3 = alloca ptr, align 8
  %4 = alloca i32, align 4
  %5 = alloca i32, align 4
  store ptr %0, ptr %3, align 8
  %6 = call zeroext i1 @can_assume_(i32 noundef 1)
  br i1 %6, label %7, label %8

7:                                                ; preds = %1
  store i32 0, ptr %2, align 4
  br label %43

8:                                                ; preds = %1
  call void @llvm.lifetime.start.p0(i64 4, ptr %4) #7
  store i32 0, ptr %4, align 4, !annotation !4
  %9 = load ptr, ptr %3, align 8
  %10 = call i32 @fdt_ro_probe_(ptr noundef %9)
  store i32 %10, ptr %4, align 4
  %11 = icmp slt i32 %10, 0
  br i1 %11, label %12, label %14

12:                                               ; preds = %8
  %13 = load i32, ptr %4, align 4
  store i32 %13, ptr %2, align 4
  store i32 1, ptr %5, align 4
  br label %15

14:                                               ; preds = %8
  store i32 0, ptr %5, align 4
  br label %15

15:                                               ; preds = %14, %12
  call void @llvm.lifetime.end.p0(i64 4, ptr %4) #7
  %16 = load i32, ptr %5, align 4
  switch i32 %16, label %45 [
    i32 0, label %17
    i32 1, label %43
  ]

17:                                               ; preds = %15
  %18 = call zeroext i1 @can_assume_(i32 noundef 4)
  br i1 %18, label %25, label %19

19:                                               ; preds = %17
  %20 = load ptr, ptr %3, align 8
  %21 = getelementptr inbounds nuw %struct.fdt_header, ptr %20, i32 0, i32 5
  %22 = call i32 @fdt32_ld(ptr noundef %21)
  %23 = icmp ult i32 %22, 17
  br i1 %23, label %24, label %25

24:                                               ; preds = %19
  store i32 -10, ptr %2, align 4
  br label %43

25:                                               ; preds = %19, %17
  %26 = load ptr, ptr %3, align 8
  %27 = load ptr, ptr %3, align 8
  %28 = getelementptr inbounds nuw %struct.fdt_header, ptr %27, i32 0, i32 9
  %29 = call i32 @fdt32_ld(ptr noundef %28)
  %30 = call i32 @fdt_blocks_misordered_(ptr noundef %26, i32 noundef 16, i32 noundef %29)
  %31 = icmp ne i32 %30, 0
  br i1 %31, label %32, label %33

32:                                               ; preds = %25
  store i32 -12, ptr %2, align 4
  br label %43

33:                                               ; preds = %25
  %34 = call zeroext i1 @can_assume_(i32 noundef 4)
  br i1 %34, label %42, label %35

35:                                               ; preds = %33
  %36 = load ptr, ptr %3, align 8
  %37 = getelementptr inbounds nuw %struct.fdt_header, ptr %36, i32 0, i32 5
  %38 = call i32 @fdt32_ld(ptr noundef %37)
  %39 = icmp ugt i32 %38, 17
  br i1 %39, label %40, label %42

40:                                               ; preds = %35
  %41 = load ptr, ptr %3, align 8
  call void @fdt_set_version(ptr noundef %41, i32 noundef 17)
  br label %42

42:                                               ; preds = %40, %35, %33
  store i32 0, ptr %2, align 4
  br label %43

43:                                               ; preds = %42, %32, %24, %15, %7
  %44 = load i32, ptr %2, align 4
  ret i32 %44

45:                                               ; preds = %15
  unreachable
}

; Function Attrs: nounwind uwtable
define dso_local i32 @fdt_set_name(ptr noundef %0, i32 noundef %1, ptr noundef %2) #0 {
  %4 = alloca i32, align 4
  %5 = alloca ptr, align 8
  %6 = alloca i32, align 4
  %7 = alloca ptr, align 8
  %8 = alloca ptr, align 8
  %9 = alloca i32, align 4
  %10 = alloca i32, align 4
  %11 = alloca i32, align 4
  %12 = alloca i32, align 4
  %13 = alloca i32, align 4
  store ptr %0, ptr %5, align 8
  store i32 %1, ptr %6, align 4
  store ptr %2, ptr %7, align 8
  call void @llvm.lifetime.start.p0(i64 8, ptr %8) #7
  store ptr null, ptr %8, align 8, !annotation !4
  call void @llvm.lifetime.start.p0(i64 4, ptr %9) #7
  store i32 0, ptr %9, align 4, !annotation !4
  call void @llvm.lifetime.start.p0(i64 4, ptr %10) #7
  store i32 0, ptr %10, align 4, !annotation !4
  call void @llvm.lifetime.start.p0(i64 4, ptr %11) #7
  store i32 0, ptr %11, align 4, !annotation !4
  call void @llvm.lifetime.start.p0(i64 4, ptr %12) #7
  store i32 0, ptr %12, align 4, !annotation !4
  %14 = load ptr, ptr %5, align 8
  %15 = call i32 @fdt_rw_probe_(ptr noundef %14)
  store i32 %15, ptr %12, align 4
  %16 = icmp ne i32 %15, 0
  br i1 %16, label %17, label %19

17:                                               ; preds = %3
  %18 = load i32, ptr %12, align 4
  store i32 %18, ptr %4, align 4
  store i32 1, ptr %13, align 4
  br label %20

19:                                               ; preds = %3
  store i32 0, ptr %13, align 4
  br label %20

20:                                               ; preds = %19, %17
  call void @llvm.lifetime.end.p0(i64 4, ptr %12) #7
  %21 = load i32, ptr %13, align 4
  switch i32 %21, label %63 [
    i32 0, label %22
  ]

22:                                               ; preds = %20
  %23 = load ptr, ptr %5, align 8
  %24 = load i32, ptr %6, align 4
  %25 = call ptr @fdt_get_name(ptr noundef %23, i32 noundef %24, ptr noundef %9)
  %26 = ptrtoint ptr %25 to i64
  %27 = inttoptr i64 %26 to ptr
  store ptr %27, ptr %8, align 8
  %28 = load ptr, ptr %8, align 8
  %29 = icmp ne ptr %28, null
  br i1 %29, label %32, label %30

30:                                               ; preds = %22
  %31 = load i32, ptr %9, align 4
  store i32 %31, ptr %4, align 4
  store i32 1, ptr %13, align 4
  br label %63

32:                                               ; preds = %22
  %33 = load ptr, ptr %7, align 8
  %34 = call i64 @strlen(ptr noundef %33) #8
  %35 = trunc i64 %34 to i32
  store i32 %35, ptr %10, align 4
  %36 = load ptr, ptr %5, align 8
  %37 = load ptr, ptr %8, align 8
  %38 = load i32, ptr %9, align 4
  %39 = add i32 %38, 1
  %40 = sext i32 %39 to i64
  %41 = add i64 %40, 4
  %42 = sub i64 %41, 1
  %43 = and i64 %42, -4
  %44 = trunc i64 %43 to i32
  %45 = load i32, ptr %10, align 4
  %46 = add i32 %45, 1
  %47 = sext i32 %46 to i64
  %48 = add i64 %47, 4
  %49 = sub i64 %48, 1
  %50 = and i64 %49, -4
  %51 = trunc i64 %50 to i32
  %52 = call i32 @fdt_splice_struct_(ptr noundef %36, ptr noundef %37, i32 noundef %44, i32 noundef %51)
  store i32 %52, ptr %11, align 4
  %53 = load i32, ptr %11, align 4
  %54 = icmp ne i32 %53, 0
  br i1 %54, label %55, label %57

55:                                               ; preds = %32
  %56 = load i32, ptr %11, align 4
  store i32 %56, ptr %4, align 4
  store i32 1, ptr %13, align 4
  br label %63

57:                                               ; preds = %32
  %58 = load ptr, ptr %8, align 8
  %59 = load ptr, ptr %7, align 8
  %60 = load i32, ptr %10, align 4
  %61 = add i32 %60, 1
  %62 = sext i32 %61 to i64
  call void @llvm.memcpy.p0.p0.i64(ptr align 1 %58, ptr align 1 %59, i64 %62, i1 false)
  store i32 0, ptr %4, align 4
  store i32 1, ptr %13, align 4
  br label %63

63:                                               ; preds = %57, %55, %30, %20
  call void @llvm.lifetime.end.p0(i64 4, ptr %11) #7
  call void @llvm.lifetime.end.p0(i64 4, ptr %10) #7
  call void @llvm.lifetime.end.p0(i64 4, ptr %9) #7
  call void @llvm.lifetime.end.p0(i64 8, ptr %8) #7
  %64 = load i32, ptr %4, align 4
  ret i32 %64
}